target datalayout = "e-m:e-p270:32:32-p271:32:32-p272:64:64-i64:64-i128:128-f80:128-n8:16:32:64-S128"
target triple = "x86_64-pc-linux-gnu"

%struct.AVComplexFloat = type { float, float }

; Function Attrs: nounwind uwtable
define internal void @import_row16(ptr noundef %0, ptr noundef %1, i32 noundef %2, float noundef %3, ptr noundef %4, i32 noundef %5) #2 {
  %7 = alloca ptr, align 8
  %8 = alloca ptr, align 8
  %9 = alloca i32, align 4
  %10 = alloca float, align 4
  %11 = alloca ptr, align 8
  %12 = alloca i32, align 4
  %13 = alloca ptr, align 8
  %14 = alloca i32, align 4
  %15 = alloca i32, align 4
  store ptr %0, ptr %7, align 8, !tbaa !85
  store ptr %1, ptr %8, align 8, !tbaa !59
  store i32 %2, ptr %9, align 4, !tbaa !24
  store float %3, ptr %10, align 4, !tbaa !75
  store ptr %4, ptr %11, align 8, !tbaa !87
  store i32 %5, ptr %12, align 4, !tbaa !24
  call void @llvm.lifetime.start.p0(i64 8, ptr %13) #11
  %16 = load ptr, ptr %8, align 8, !tbaa !59
  store ptr %16, ptr %13, align 8, !tbaa !131
  call void @llvm.lifetime.start.p0(i64 4, ptr %14) #11
  store i32 0, ptr %14, align 4, !tbaa !24
  br label %17

17:                                               ; preds = %52, %6
  %18 = load i32, ptr %14, align 4, !tbaa !24
  %19 = load i32, ptr %9, align 4, !tbaa !24
  %20 = icmp slt i32 %18, %19
  br i1 %20, label %22, label %21

21:                                               ; preds = %17
  call void @llvm.lifetime.end.p0(i64 4, ptr %14) #11
  br label %55

22:                                               ; preds = %17
  call void @llvm.lifetime.start.p0(i64 4, ptr %15) #11
  %23 = load i32, ptr %14, align 4, !tbaa !24
  %24 = load i32, ptr %12, align 4, !tbaa !24
  %25 = add nsw i32 %23, %24
  %26 = call i32 @llvm.abs.i32(i32 %25, i1 true)
  store i32 %26, ptr %15, align 4, !tbaa !24
  %27 = load ptr, ptr %13, align 8, !tbaa !131
  %28 = load i32, ptr %15, align 4, !tbaa !24
  %29 = sext i32 %28 to i64
  %30 = getelementptr inbounds i16, ptr %27, i64 %29
  %31 = load i16, ptr %30, align 2, !tbaa !133
  %32 = zext i16 %31 to i32
  %33 = sitofp i32 %32 to float
  %34 = load float, ptr %10, align 4, !tbaa !75
  %35 = fmul nsz float %33, %34
  %36 = load ptr, ptr %11, align 8, !tbaa !87
  %37 = load i32, ptr %14, align 4, !tbaa !24
  %38 = sext i32 %37 to i64
  %39 = getelementptr inbounds float, ptr %36, i64 %38
  %40 = load float, ptr %39, align 4, !tbaa !75
  %41 = fmul nsz float %35, %40
  %42 = load ptr, ptr %7, align 8, !tbaa !85
  %43 = load i32, ptr %14, align 4, !tbaa !24
  %44 = sext i32 %43 to i64
  %45 = getelementptr inbounds %struct.AVComplexFloat, ptr %42, i64 %44
  %46 = getelementptr inbounds nuw %struct.AVComplexFloat, ptr %45, i32 0, i32 0
  store float %41, ptr %46, align 4, !tbaa !98
  %47 = load ptr, ptr %7, align 8, !tbaa !85
  %48 = load i32, ptr %14, align 4, !tbaa !24
  %49 = sext i32 %48 to i64
  %50 = getelementptr inbounds %struct.AVComplexFloat, ptr %47, i64 %49
  %51 = getelementptr inbounds nuw %struct.AVComplexFloat, ptr %50, i32 0, i32 1
  store float 0.000000e+00, ptr %51, align 4, !tbaa !100
  call void @llvm.lifetime.end.p0(i64 4, ptr %15) #11
  br label %52

52:                                               ; preds = %22
  %53 = load i32, ptr %14, align 4, !tbaa !24
  %54 = add nsw i32 %53, 1
  store i32 %54, ptr %14, align 4, !tbaa !24
  br label %17, !llvm.loop !135

55:                                               ; preds = %21
  call void @llvm.lifetime.end.p0(i64 8, ptr %13) #11
  ret void
}